target datalayout = "e-m:e-p270:32:32-p271:32:32-p272:64:64-i64:64-i128:128-f80:128-n8:16:32:64-S128"
target triple = "x86_64-pc-linux-gnu"

%"struct.gmx::EnumerationArray.49" = type { [42 x ptr] }

@_ZL9necessary = internal global %"struct.gmx::EnumerationArray.49" zeroinitializer, align 8

; Function Attrs: mustprogress nounwind uwtable
define linkonce_odr noundef nonnull align 8 dereferenceable(8) ptr @_ZN3gmx16EnumerationArrayI9DirectivePS1_LS1_42EEixES1_(ptr noundef nonnull align 8 dereferenceable(336) %0, i32 noundef %1) #1 comdat align 2 {
  %3 = alloca ptr, align 8
  %4 = alloca i32, align 4
  store ptr %0, ptr %3, align 8, !tbaa !277
  store i32 %1, ptr %4, align 4, !tbaa !4
  %5 = load ptr, ptr %3, align 8
  %6 = getelementptr inbounds nuw %"struct.gmx::EnumerationArray.49", ptr %5, i32 0, i32 0
  %7 = load i32, ptr %4, align 4, !tbaa !4
  %8 = sext i32 %7 to i64
  %9 = getelementptr inbounds nuw [42 x ptr], ptr %6, i64 0, i64 %8
  ret ptr %9
}

; Function Attrs: mustprogress nounwind uwtable
define linkonce_odr noundef nonnull align 8 dereferenceable(8) ptr @_ZN3gmx16EnumerationArrayI9DirectivePS1_LS1_42EEixEm(ptr noundef nonnull align 8 dereferenceable(336) %0, i64 noundef %1) #1 comdat align 2 {
  %3 = alloca ptr, align 8
  %4 = alloca i64, align 8
  store ptr %0, ptr %3, align 8, !tbaa !277
  store i64 %1, ptr %4, align 8, !tbaa !20
  %5 = load ptr, ptr %3, align 8
  %6 = getelementptr inbounds nuw %"struct.gmx::EnumerationArray.49", ptr %5, i32 0, i32 0
  %7 = load i64, ptr %4, align 8, !tbaa !20
  %8 = getelementptr inbounds nuw [42 x ptr], ptr %6, i64 0, i64 %7
  ret ptr %8
}

; Function Attrs: mustprogress uwtable
define void @_Z7DS_InitPP8DirStack(ptr noundef %0) #0 {
  %2 = alloca ptr, align 8
  store ptr %0, ptr %2, align 8, !tbaa !273
  %3 = call noundef nonnull align 8 dereferenceable(8) ptr @_ZN3gmx16EnumerationArrayI9DirectivePS1_LS1_42EEixEm(ptr noundef nonnull align 8 dereferenceable(336) @_ZL9necessary, i64 noundef 0)
  %4 = load ptr, ptr %3, align 8, !tbaa !106
  %5 = icmp eq ptr %4, null
  br i1 %5, label %6, label %46

6:                                                ; preds = %1
  %7 = call noundef nonnull align 8 dereferenceable(8) ptr @_ZN3gmx16EnumerationArrayI9DirectivePS1_LS1_42EEixES1_(ptr noundef nonnull align 8 dereferenceable(336) @_ZL9necessary, i32 noundef 0)
  call void (ptr, ...) @_ZL7set_necPP9Directivez(ptr noundef %7, i32 noundef 41)
  %8 = call noundef nonnull align 8 dereferenceable(8) ptr @_ZN3gmx16EnumerationArrayI9DirectivePS1_LS1_42EEixES1_(ptr noundef nonnull align 8 dereferenceable(336) @_ZL9necessary, i32 noundef 1)
  call void (ptr, ...) @_ZL7set_necPP9Directivez(ptr noundef %8, i32 noundef 0, i32 noundef 41)
  %9 = call noundef nonnull align 8 dereferenceable(8) ptr @_ZN3gmx16EnumerationArrayI9DirectivePS1_LS1_42EEixES1_(ptr noundef nonnull align 8 dereferenceable(336) @_ZL9necessary, i32 noundef 2)
  call void (ptr, ...) @_ZL7set_necPP9Directivez(ptr noundef %9, i32 noundef 1, i32 noundef 41)
  %10 = call noundef nonnull align 8 dereferenceable(8) ptr @_ZN3gmx16EnumerationArrayI9DirectivePS1_LS1_42EEixES1_(ptr noundef nonnull align 8 dereferenceable(336) @_ZL9necessary, i32 noundef 3)
  call void (ptr, ...) @_ZL7set_necPP9Directivez(ptr noundef %10, i32 noundef 1, i32 noundef 41)
  %11 = call noundef nonnull align 8 dereferenceable(8) ptr @_ZN3gmx16EnumerationArrayI9DirectivePS1_LS1_42EEixES1_(ptr noundef nonnull align 8 dereferenceable(336) @_ZL9necessary, i32 noundef 4)
  call void (ptr, ...) @_ZL7set_necPP9Directivez(ptr noundef %11, i32 noundef 1, i32 noundef 41)
  %12 = call noundef nonnull align 8 dereferenceable(8) ptr @_ZN3gmx16EnumerationArrayI9DirectivePS1_LS1_42EEixES1_(ptr noundef nonnull align 8 dereferenceable(336) @_ZL9necessary, i32 noundef 5)
  call void (ptr, ...) @_ZL7set_necPP9Directivez(ptr noundef %12, i32 noundef 1, i32 noundef 41)
  %13 = call noundef nonnull align 8 dereferenceable(8) ptr @_ZN3gmx16EnumerationArrayI9DirectivePS1_LS1_42EEixES1_(ptr noundef nonnull align 8 dereferenceable(336) @_ZL9necessary, i32 noundef 6)
  call void (ptr, ...) @_ZL7set_necPP9Directivez(ptr noundef %13, i32 noundef 1, i32 noundef 41)
  %14 = call noundef nonnull align 8 dereferenceable(8) ptr @_ZN3gmx16EnumerationArrayI9DirectivePS1_LS1_42EEixES1_(ptr noundef nonnull align 8 dereferenceable(336) @_ZL9necessary, i32 noundef 7)
  call void (ptr, ...) @_ZL7set_necPP9Directivez(ptr noundef %14, i32 noundef 1, i32 noundef 41)
  %15 = call noundef nonnull align 8 dereferenceable(8) ptr @_ZN3gmx16EnumerationArrayI9DirectivePS1_LS1_42EEixES1_(ptr noundef nonnull align 8 dereferenceable(336) @_ZL9necessary, i32 noundef 8)
  call void (ptr, ...) @_ZL7set_necPP9Directivez(ptr noundef %15, i32 noundef 1, i32 noundef 41)
  %16 = call noundef nonnull align 8 dereferenceable(8) ptr @_ZN3gmx16EnumerationArrayI9DirectivePS1_LS1_42EEixES1_(ptr noundef nonnull align 8 dereferenceable(336) @_ZL9necessary, i32 noundef 9)
  call void (ptr, ...) @_ZL7set_necPP9Directivez(ptr noundef %16, i32 noundef 1, i32 noundef 41)
  %17 = call noundef nonnull align 8 dereferenceable(8) ptr @_ZN3gmx16EnumerationArrayI9DirectivePS1_LS1_42EEixES1_(ptr noundef nonnull align 8 dereferenceable(336) @_ZL9necessary, i32 noundef 10)
  call void (ptr, ...) @_ZL7set_necPP9Directivez(ptr noundef %17, i32 noundef 1, i32 noundef 41)
  %18 = call noundef nonnull align 8 dereferenceable(8) ptr @_ZN3gmx16EnumerationArrayI9DirectivePS1_LS1_42EEixES1_(ptr noundef nonnull align 8 dereferenceable(336) @_ZL9necessary, i32 noundef 11)
  call void (ptr, ...) @_ZL7set_necPP9Directivez(ptr noundef %18, i32 noundef 1, i32 noundef 41)
  %19 = call noundef nonnull align 8 dereferenceable(8) ptr @_ZN3gmx16EnumerationArrayI9DirectivePS1_LS1_42EEixES1_(ptr noundef nonnull align 8 dereferenceable(336) @_ZL9necessary, i32 noundef 12)
  call void (ptr, ...) @_ZL7set_necPP9Directivez(ptr noundef %19, i32 noundef 11, i32 noundef 41)
  %20 = call noundef nonnull align 8 dereferenceable(8) ptr @_ZN3gmx16EnumerationArrayI9DirectivePS1_LS1_42EEixES1_(ptr noundef nonnull align 8 dereferenceable(336) @_ZL9necessary, i32 noundef 13)
  call void (ptr, ...) @_ZL7set_necPP9Directivez(ptr noundef %20, i32 noundef 12, i32 noundef 41)
  %21 = call noundef nonnull align 8 dereferenceable(8) ptr @_ZN3gmx16EnumerationArrayI9DirectivePS1_LS1_42EEixES1_(ptr noundef nonnull align 8 dereferenceable(336) @_ZL9necessary, i32 noundef 14)
  call void (ptr, ...) @_ZL7set_necPP9Directivez(ptr noundef %21, i32 noundef 12, i32 noundef 41)
  %22 = call noundef nonnull align 8 dereferenceable(8) ptr @_ZN3gmx16EnumerationArrayI9DirectivePS1_LS1_42EEixES1_(ptr noundef nonnull align 8 dereferenceable(336) @_ZL9necessary, i32 noundef 15)
  call void (ptr, ...) @_ZL7set_necPP9Directivez(ptr noundef %22, i32 noundef 12, i32 noundef 41)
  %23 = call noundef nonnull align 8 dereferenceable(8) ptr @_ZN3gmx16EnumerationArrayI9DirectivePS1_LS1_42EEixES1_(ptr noundef nonnull align 8 dereferenceable(336) @_ZL9necessary, i32 noundef 16)
  call void (ptr, ...) @_ZL7set_necPP9Directivez(ptr noundef %23, i32 noundef 12, i32 noundef 41)
  %24 = call noundef nonnull align 8 dereferenceable(8) ptr @_ZN3gmx16EnumerationArrayI9DirectivePS1_LS1_42EEixES1_(ptr noundef nonnull align 8 dereferenceable(336) @_ZL9necessary, i32 noundef 17)
  call void (ptr, ...) @_ZL7set_necPP9Directivez(ptr noundef %24, i32 noundef 12, i32 noundef 41)
  %25 = call noundef nonnull align 8 dereferenceable(8) ptr @_ZN3gmx16EnumerationArrayI9DirectivePS1_LS1_42EEixES1_(ptr noundef nonnull align 8 dereferenceable(336) @_ZL9necessary, i32 noundef 18)
  call void (ptr, ...) @_ZL7set_necPP9Directivez(ptr noundef %25, i32 noundef 12, i32 noundef 41)
  %26 = call noundef nonnull align 8 dereferenceable(8) ptr @_ZN3gmx16EnumerationArrayI9DirectivePS1_LS1_42EEixES1_(ptr noundef nonnull align 8 dereferenceable(336) @_ZL9necessary, i32 noundef 19)
  call void (ptr, ...) @_ZL7set_necPP9Directivez(ptr noundef %26, i32 noundef 18, i32 noundef 24, i32 noundef 25, i32 noundef 41)
  %27 = call noundef nonnull align 8 dereferenceable(8) ptr @_ZN3gmx16EnumerationArrayI9DirectivePS1_LS1_42EEixES1_(ptr noundef nonnull align 8 dereferenceable(336) @_ZL9necessary, i32 noundef 20)
  call void (ptr, ...) @_ZL7set_necPP9Directivez(ptr noundef %27, i32 noundef 12, i32 noundef 41)
  %28 = call noundef nonnull align 8 dereferenceable(8) ptr @_ZN3gmx16EnumerationArrayI9DirectivePS1_LS1_42EEixES1_(ptr noundef nonnull align 8 dereferenceable(336) @_ZL9necessary, i32 noundef 21)
  call void (ptr, ...) @_ZL7set_necPP9Directivez(ptr noundef %28, i32 noundef 12, i32 noundef 41)
  %29 = call noundef nonnull align 8 dereferenceable(8) ptr @_ZN3gmx16EnumerationArrayI9DirectivePS1_LS1_42EEixES1_(ptr noundef nonnull align 8 dereferenceable(336) @_ZL9necessary, i32 noundef 22)
  call void (ptr, ...) @_ZL7set_necPP9Directivez(ptr noundef %29, i32 noundef 12, i32 noundef 41)
  %30 = call noundef nonnull align 8 dereferenceable(8) ptr @_ZN3gmx16EnumerationArrayI9DirectivePS1_LS1_42EEixES1_(ptr noundef nonnull align 8 dereferenceable(336) @_ZL9necessary, i32 noundef 26)
  call void (ptr, ...) @_ZL7set_necPP9Directivez(ptr noundef %30, i32 noundef 12, i32 noundef 41)
  %31 = call noundef nonnull align 8 dereferenceable(8) ptr @_ZN3gmx16EnumerationArrayI9DirectivePS1_LS1_42EEixES1_(ptr noundef nonnull align 8 dereferenceable(336) @_ZL9necessary, i32 noundef 27)
  call void (ptr, ...) @_ZL7set_necPP9Directivez(ptr noundef %31, i32 noundef 12, i32 noundef 41)
  %32 = call noundef nonnull align 8 dereferenceable(8) ptr @_ZN3gmx16EnumerationArrayI9DirectivePS1_LS1_42EEixES1_(ptr noundef nonnull align 8 dereferenceable(336) @_ZL9necessary, i32 noundef 28)
  call void (ptr, ...) @_ZL7set_necPP9Directivez(ptr noundef %32, i32 noundef 12, i32 noundef 41)
  %33 = call noundef nonnull align 8 dereferenceable(8) ptr @_ZN3gmx16EnumerationArrayI9DirectivePS1_LS1_42EEixES1_(ptr noundef nonnull align 8 dereferenceable(336) @_ZL9necessary, i32 noundef 23)
  call void (ptr, ...) @_ZL7set_necPP9Directivez(ptr noundef %33, i32 noundef 12, i32 noundef 41)
  %34 = call noundef nonnull align 8 dereferenceable(8) ptr @_ZN3gmx16EnumerationArrayI9DirectivePS1_LS1_42EEixES1_(ptr noundef nonnull align 8 dereferenceable(336) @_ZL9necessary, i32 noundef 24)
  call void (ptr, ...) @_ZL7set_necPP9Directivez(ptr noundef %34, i32 noundef 12, i32 noundef 41)
  %35 = call noundef nonnull align 8 dereferenceable(8) ptr @_ZN3gmx16EnumerationArrayI9DirectivePS1_LS1_42EEixES1_(ptr noundef nonnull align 8 dereferenceable(336) @_ZL9necessary, i32 noundef 25)
  call void (ptr, ...) @_ZL7set_necPP9Directivez(ptr noundef %35, i32 noundef 12, i32 noundef 41)
  %36 = call noundef nonnull align 8 dereferenceable(8) ptr @_ZN3gmx16EnumerationArrayI9DirectivePS1_LS1_42EEixES1_(ptr noundef nonnull align 8 dereferenceable(336) @_ZL9necessary, i32 noundef 29)
  call void (ptr, ...) @_ZL7set_necPP9Directivez(ptr noundef %36, i32 noundef 11, i32 noundef 41)
  %37 = call noundef nonnull align 8 dereferenceable(8) ptr @_ZN3gmx16EnumerationArrayI9DirectivePS1_LS1_42EEixES1_(ptr noundef nonnull align 8 dereferenceable(336) @_ZL9necessary, i32 noundef 30)
  call void (ptr, ...) @_ZL7set_necPP9Directivez(ptr noundef %37, i32 noundef 29, i32 noundef 41)
  %38 = call noundef nonnull align 8 dereferenceable(8) ptr @_ZN3gmx16EnumerationArrayI9DirectivePS1_LS1_42EEixES1_(ptr noundef nonnull align 8 dereferenceable(336) @_ZL9necessary, i32 noundef 31)
  call void (ptr, ...) @_ZL7set_necPP9Directivez(ptr noundef %38, i32 noundef 12, i32 noundef 41)
  %39 = call noundef nonnull align 8 dereferenceable(8) ptr @_ZN3gmx16EnumerationArrayI9DirectivePS1_LS1_42EEixES1_(ptr noundef nonnull align 8 dereferenceable(336) @_ZL9necessary, i32 noundef 32)
  call void (ptr, ...) @_ZL7set_necPP9Directivez(ptr noundef %39, i32 noundef 12, i32 noundef 41)
  %40 = call noundef nonnull align 8 dereferenceable(8) ptr @_ZN3gmx16EnumerationArrayI9DirectivePS1_LS1_42EEixES1_(ptr noundef nonnull align 8 dereferenceable(336) @_ZL9necessary, i32 noundef 33)
  call void (ptr, ...) @_ZL7set_necPP9Directivez(ptr noundef %40, i32 noundef 12, i32 noundef 41)
  %41 = call noundef nonnull align 8 dereferenceable(8) ptr @_ZN3gmx16EnumerationArrayI9DirectivePS1_LS1_42EEixES1_(ptr noundef nonnull align 8 dereferenceable(336) @_ZL9necessary, i32 noundef 34)
  call void (ptr, ...) @_ZL7set_necPP9Directivez(ptr noundef %41, i32 noundef 12, i32 noundef 41)
  %42 = call noundef nonnull align 8 dereferenceable(8) ptr @_ZN3gmx16EnumerationArrayI9DirectivePS1_LS1_42EEixES1_(ptr noundef nonnull align 8 dereferenceable(336) @_ZL9necessary, i32 noundef 35)
  call void (ptr, ...) @_ZL7set_necPP9Directivez(ptr noundef %42, i32 noundef 12, i32 noundef 41)
  %43 = call noundef nonnull align 8 dereferenceable(8) ptr @_ZN3gmx16EnumerationArrayI9DirectivePS1_LS1_42EEixES1_(ptr noundef nonnull align 8 dereferenceable(336) @_ZL9necessary, i32 noundef 36)
  call void (ptr, ...) @_ZL7set_necPP9Directivez(ptr noundef %43, i32 noundef 12, i32 noundef 41)
  %44 = call noundef nonnull align 8 dereferenceable(8) ptr @_ZN3gmx16EnumerationArrayI9DirectivePS1_LS1_42EEixES1_(ptr noundef nonnull align 8 dereferenceable(336) @_ZL9necessary, i32 noundef 37)
  call void (ptr, ...) @_ZL7set_necPP9Directivez(ptr noundef %44, i32 noundef 12, i32 noundef 41)
  %45 = call noundef nonnull align 8 dereferenceable(8) ptr @_ZN3gmx16EnumerationArrayI9DirectivePS1_LS1_42EEixES1_(ptr noundef nonnull align 8 dereferenceable(336) @_ZL9necessary, i32 noundef 38)
  call void (ptr, ...) @_ZL7set_necPP9Directivez(ptr noundef %45, i32 noundef 30, i32 noundef 41)
  br label %46

46:                                               ; preds = %6, %1
  %47 = load ptr, ptr %2, align 8, !tbaa !273
  store ptr null, ptr %47, align 8, !tbaa !275
  ret void
}