; Function Attrs: mustprogress uwtable
define void @_Z7DS_InitPP8DirStack(ptr noundef writeonly captures(none) initializes((0, 8)) %0) local_unnamed_addr #1 {
  %2 = load ptr, ptr @_ZL9necessary, align 8, !tbaa !65
  %3 = icmp eq ptr %2, null
  br i1 %3, label %4, label %5

4:                                                ; preds = %1
  tail call void (ptr, ...) @_ZL7set_necPP9Directivez(ptr noundef @_ZL9necessary, i32 noundef 41)
  tail call void (ptr, ...) @_ZL7set_necPP9Directivez(ptr noundef getelementptr inbounds nuw (i8, ptr @_ZL9necessary, i64 8), i32 noundef 0, i32 noundef 41)
  tail call void (ptr, ...) @_ZL7set_necPP9Directivez(ptr noundef getelementptr inbounds nuw (i8, ptr @_ZL9necessary, i64 16), i32 noundef 1, i32 noundef 41)
  tail call void (ptr, ...) @_ZL7set_necPP9Directivez(ptr noundef getelementptr inbounds nuw (i8, ptr @_ZL9necessary, i64 24), i32 noundef 1, i32 noundef 41)
  tail call void (ptr, ...) @_ZL7set_necPP9Directivez(ptr noundef getelementptr inbounds nuw (i8, ptr @_ZL9necessary, i64 32), i32 noundef 1, i32 noundef 41)
  tail call void (ptr, ...) @_ZL7set_necPP9Directivez(ptr noundef getelementptr inbounds nuw (i8, ptr @_ZL9necessary, i64 40), i32 noundef 1, i32 noundef 41)
  tail call void (ptr, ...) @_ZL7set_necPP9Directivez(ptr noundef getelementptr inbounds nuw (i8, ptr @_ZL9necessary, i64 48), i32 noundef 1, i32 noundef 41)
  tail call void (ptr, ...) @_ZL7set_necPP9Directivez(ptr noundef getelementptr inbounds nuw (i8, ptr @_ZL9necessary, i64 56), i32 noundef 1, i32 noundef 41)
  tail call void (ptr, ...) @_ZL7set_necPP9Directivez(ptr noundef getelementptr inbounds nuw (i8, ptr @_ZL9necessary, i64 64), i32 noundef 1, i32 noundef 41)
  tail call void (ptr, ...) @_ZL7set_necPP9Directivez(ptr noundef getelementptr inbounds nuw (i8, ptr @_ZL9necessary, i64 72), i32 noundef 1, i32 noundef 41)
  tail call void (ptr, ...) @_ZL7set_necPP9Directivez(ptr noundef getelementptr inbounds nuw (i8, ptr @_ZL9necessary, i64 80), i32 noundef 1, i32 noundef 41)
  tail call void (ptr, ...) @_ZL7set_necPP9Directivez(ptr noundef getelementptr inbounds nuw (i8, ptr @_ZL9necessary, i64 88), i32 noundef 1, i32 noundef 41)
  tail call void (ptr, ...) @_ZL7set_necPP9Directivez(ptr noundef getelementptr inbounds nuw (i8, ptr @_ZL9necessary, i64 96), i32 noundef 11, i32 noundef 41)
  tail call void (ptr, ...) @_ZL7set_necPP9Directivez(ptr noundef getelementptr inbounds nuw (i8, ptr @_ZL9necessary, i64 104), i32 noundef 12, i32 noundef 41)
  tail call void (ptr, ...) @_ZL7set_necPP9Directivez(ptr noundef getelementptr inbounds nuw (i8, ptr @_ZL9necessary, i64 112), i32 noundef 12, i32 noundef 41)
  tail call void (ptr, ...) @_ZL7set_necPP9Directivez(ptr noundef getelementptr inbounds nuw (i8, ptr @_ZL9necessary, i64 120), i32 noundef 12, i32 noundef 41)
  tail call void (ptr, ...) @_ZL7set_necPP9Directivez(ptr noundef getelementptr inbounds nuw (i8, ptr @_ZL9necessary, i64 128), i32 noundef 12, i32 noundef 41)
  tail call void (ptr, ...) @_ZL7set_necPP9Directivez(ptr noundef getelementptr inbounds nuw (i8, ptr @_ZL9necessary, i64 136), i32 noundef 12, i32 noundef 41)
  tail call void (ptr, ...) @_ZL7set_necPP9Directivez(ptr noundef getelementptr inbounds nuw (i8, ptr @_ZL9necessary, i64 144), i32 noundef 12, i32 noundef 41)
  tail call void (ptr, ...) @_ZL7set_necPP9Directivez(ptr noundef getelementptr inbounds nuw (i8, ptr @_ZL9necessary, i64 152), i32 noundef 18, i32 noundef 24, i32 noundef 25, i32 noundef 41)
  tail call void (ptr, ...) @_ZL7set_necPP9Directivez(ptr noundef getelementptr inbounds nuw (i8, ptr @_ZL9necessary, i64 160), i32 noundef 12, i32 noundef 41)
  tail call void (ptr, ...) @_ZL7set_necPP9Directivez(ptr noundef getelementptr inbounds nuw (i8, ptr @_ZL9necessary, i64 168), i32 noundef 12, i32 noundef 41)
  tail call void (ptr, ...) @_ZL7set_necPP9Directivez(ptr noundef getelementptr inbounds nuw (i8, ptr @_ZL9necessary, i64 176), i32 noundef 12, i32 noundef 41)
  tail call void (ptr, ...) @_ZL7set_necPP9Directivez(ptr noundef getelementptr inbounds nuw (i8, ptr @_ZL9necessary, i64 208), i32 noundef 12, i32 noundef 41)
  tail call void (ptr, ...) @_ZL7set_necPP9Directivez(ptr noundef getelementptr inbounds nuw (i8, ptr @_ZL9necessary, i64 216), i32 noundef 12, i32 noundef 41)
  tail call void (ptr, ...) @_ZL7set_necPP9Directivez(ptr noundef getelementptr inbounds nuw (i8, ptr @_ZL9necessary, i64 224), i32 noundef 12, i32 noundef 41)
  tail call void (ptr, ...) @_ZL7set_necPP9Directivez(ptr noundef getelementptr inbounds nuw (i8, ptr @_ZL9necessary, i64 184), i32 noundef 12, i32 noundef 41)
  tail call void (ptr, ...) @_ZL7set_necPP9Directivez(ptr noundef getelementptr inbounds nuw (i8, ptr @_ZL9necessary, i64 192), i32 noundef 12, i32 noundef 41)
  tail call void (ptr, ...) @_ZL7set_necPP9Directivez(ptr noundef getelementptr inbounds nuw (i8, ptr @_ZL9necessary, i64 200), i32 noundef 12, i32 noundef 41)
  tail call void (ptr, ...) @_ZL7set_necPP9Directivez(ptr noundef getelementptr inbounds nuw (i8, ptr @_ZL9necessary, i64 232), i32 noundef 11, i32 noundef 41)
  tail call void (ptr, ...) @_ZL7set_necPP9Directivez(ptr noundef getelementptr inbounds nuw (i8, ptr @_ZL9necessary, i64 240), i32 noundef 29, i32 noundef 41)
  tail call void (ptr, ...) @_ZL7set_necPP9Directivez(ptr noundef getelementptr inbounds nuw (i8, ptr @_ZL9necessary, i64 248), i32 noundef 12, i32 noundef 41)
  tail call void (ptr, ...) @_ZL7set_necPP9Directivez(ptr noundef getelementptr inbounds nuw (i8, ptr @_ZL9necessary, i64 256), i32 noundef 12, i32 noundef 41)
  tail call void (ptr, ...) @_ZL7set_necPP9Directivez(ptr noundef getelementptr inbounds nuw (i8, ptr @_ZL9necessary, i64 264), i32 noundef 12, i32 noundef 41)
  tail call void (ptr, ...) @_ZL7set_necPP9Directivez(ptr noundef getelementptr inbounds nuw (i8, ptr @_ZL9necessary, i64 272), i32 noundef 12, i32 noundef 41)
  tail call void (ptr, ...) @_ZL7set_necPP9Directivez(ptr noundef getelementptr inbounds nuw (i8, ptr @_ZL9necessary, i64 280), i32 noundef 12, i32 noundef 41)
  tail call void (ptr, ...) @_ZL7set_necPP9Directivez(ptr noundef getelementptr inbounds nuw (i8, ptr @_ZL9necessary, i64 288), i32 noundef 12, i32 noundef 41)
  tail call void (ptr, ...) @_ZL7set_necPP9Directivez(ptr noundef getelementptr inbounds nuw (i8, ptr @_ZL9necessary, i64 296), i32 noundef 12, i32 noundef 41)
  tail call void (ptr, ...) @_ZL7set_necPP9Directivez(ptr noundef getelementptr inbounds nuw (i8, ptr @_ZL9necessary, i64 304), i32 noundef 30, i32 noundef 41)
  br label %5

5:                                                ; preds = %4, %1
  store ptr null, ptr %0, align 8, !tbaa !66
  ret void
}